target datalayout = "e-m:e-p270:32:32-p271:32:32-p272:64:64-i64:64-i128:128-f80:128-n8:16:32:64-S128"
target triple = "x86_64-pc-linux-gnu"

%class.VMRegImpl = type { i8 }
%class.OopMapStream = type <{ %class.CompressedReadStream, i32, i32, i8, i8, %class.OopMapValue, [2 x i8] }>
%class.CompressedReadStream = type { %class.CompressedStream.base, [4 x i8] }
%class.CompressedStream.base = type <{ ptr, i32 }>
%class.OopMapValue = type { i16, i16 }
%class.CompressedStream = type <{ ptr, i32, [4 x i8] }>
%class.ImmutableOopMap = type <{ i32, i32, i8, [3 x i8] }>

@all_VMRegs = external hidden global [610 x %class.VMRegImpl], align 16

; Function Attrs: mustprogress nounwind uwtable
define linkonce_odr hidden noundef i32 @_Z12checked_castIilET_T0_(i64 noundef %0) #1 comdat {
  %2 = alloca i64, align 8
  %3 = alloca i32, align 4
  store i64 %0, ptr %2, align 8
  %4 = load i64, ptr %2, align 8
  %5 = trunc i64 %4 to i32
  store i32 %5, ptr %3, align 4
  %6 = load i32, ptr %3, align 4
  ret i32 %6
}

; Function Attrs: mustprogress nounwind uwtable
define linkonce_odr hidden noundef i64 @_Z9mask_bitsll(i64 noundef %0, i64 noundef %1) #1 comdat {
  %3 = alloca i64, align 8
  %4 = alloca i64, align 8
  store i64 %0, ptr %3, align 8
  store i64 %1, ptr %4, align 8
  %5 = load i64, ptr %3, align 8
  %6 = load i64, ptr %4, align 8
  %7 = and i64 %5, %6
  ret i64 %7
}

; Function Attrs: mustprogress nounwind uwtable
define linkonce_odr hidden noundef zeroext i16 @_ZNK11OopMapValue5valueEv(ptr noundef nonnull align 2 dereferenceable(4) %0) #1 comdat align 2 {
  %2 = alloca ptr, align 8
  store ptr %0, ptr %2, align 8
  %3 = load ptr, ptr %2, align 8
  %4 = getelementptr inbounds %class.OopMapValue, ptr %3, i32 0, i32 0
  %5 = load i16, ptr %4, align 2
  ret i16 %5
}

; Function Attrs: mustprogress nounwind uwtable
define linkonce_odr hidden noundef signext i16 @_Z12checked_castIsiET_T0_(i32 noundef %0) #1 comdat {
  %2 = alloca i32, align 4
  %3 = alloca i16, align 2
  store i32 %0, ptr %2, align 4
  %4 = load i32, ptr %2, align 4
  %5 = trunc i32 %4 to i16
  store i16 %5, ptr %3, align 2
  %6 = load i16, ptr %3, align 2
  ret i16 %6
}

; Function Attrs: mustprogress nounwind uwtable
define linkonce_odr hidden noundef i32 @_ZNK9VMRegImpl5valueEv(ptr noundef nonnull align 1 dereferenceable(1) %0) #1 comdat align 2 {
  %2 = alloca ptr, align 8
  store ptr %0, ptr %2, align 8
  %3 = load ptr, ptr %2, align 8
  %4 = call noundef ptr @_ZN9VMRegImpl5firstEv()
  %5 = ptrtoint ptr %3 to i64
  %6 = ptrtoint ptr %4 to i64
  %7 = sub i64 %5, %6
  %8 = call noundef i32 @_Z12checked_castIilET_T0_(i64 noundef %7)
  ret i32 %8
}

; Function Attrs: mustprogress nounwind uwtable
define linkonce_odr hidden noundef zeroext i1 @_ZN11OopMapValue14is_derived_oopEv(ptr noundef nonnull align 2 dereferenceable(4) %0) #1 comdat align 2 {
  %2 = alloca ptr, align 8
  store ptr %0, ptr %2, align 8
  %3 = load ptr, ptr %2, align 8
  %4 = call noundef zeroext i16 @_ZNK11OopMapValue5valueEv(ptr noundef nonnull align 2 dereferenceable(4) %3)
  %5 = zext i16 %4 to i64
  %6 = call noundef i64 @_Z9mask_bitsll(i64 noundef %5, i64 noundef 3)
  %7 = icmp eq i64 %6, 3
  ret i1 %7
}

; Function Attrs: mustprogress nounwind uwtable
define linkonce_odr hidden noundef zeroext i1 @_ZN11OopMapValue15is_callee_savedEv(ptr noundef nonnull align 2 dereferenceable(4) %0) #1 comdat align 2 {
  %2 = alloca ptr, align 8
  store ptr %0, ptr %2, align 8
  %3 = load ptr, ptr %2, align 8
  %4 = call noundef zeroext i16 @_ZNK11OopMapValue5valueEv(ptr noundef nonnull align 2 dereferenceable(4) %3)
  %5 = zext i16 %4 to i64
  %6 = call noundef i64 @_Z9mask_bitsll(i64 noundef %5, i64 noundef 3)
  %7 = icmp eq i64 %6, 2
  ret i1 %7
}

; Function Attrs: mustprogress nounwind uwtable
define linkonce_odr hidden noundef ptr @_ZN9VMRegImpl5firstEv() #1 comdat align 2 {
  ret ptr getelementptr inbounds (%class.VMRegImpl, ptr @all_VMRegs, i64 1)
}

; Function Attrs: mustprogress nounwind uwtable
define linkonce_odr hidden void @_ZN11OopMapValue15set_content_regEP9VMRegImpl(ptr noundef nonnull align 2 dereferenceable(4) %0, ptr noundef %1) #1 comdat align 2 {
  %3 = alloca ptr, align 8
  %4 = alloca ptr, align 8
  store ptr %0, ptr %3, align 8
  store ptr %1, ptr %4, align 8
  %5 = load ptr, ptr %3, align 8
  %6 = call noundef zeroext i1 @_ZN11OopMapValue15is_callee_savedEv(ptr noundef nonnull align 2 dereferenceable(4) %5)
  br i1 %6, label %7, label %8

7:                                                ; preds = %2
  br label %13

8:                                                ; preds = %2
  %9 = call noundef zeroext i1 @_ZN11OopMapValue14is_derived_oopEv(ptr noundef nonnull align 2 dereferenceable(4) %5)
  br i1 %9, label %10, label %11

10:                                               ; preds = %8
  br label %12

11:                                               ; preds = %8
  br label %12

12:                                               ; preds = %11, %10
  br label %13

13:                                               ; preds = %12, %7
  %14 = load ptr, ptr %4, align 8
  %15 = call noundef i32 @_ZNK9VMRegImpl5valueEv(ptr noundef nonnull align 1 dereferenceable(1) %14)
  %16 = call noundef signext i16 @_Z12checked_castIsiET_T0_(i32 noundef %15)
  %17 = getelementptr inbounds %class.OopMapValue, ptr %5, i32 0, i32 1
  store i16 %16, ptr %17, align 2
  ret void
}

; Function Attrs: mustprogress nounwind uwtable
define linkonce_odr hidden noundef ptr @_ZN9VMRegImpl3BadEv() #1 comdat align 2 {
  %1 = call noundef ptr @_ZN9VMRegImpl5firstEv()
  %2 = getelementptr inbounds %class.VMRegImpl, ptr %1, i64 -1
  ret ptr %2
}

; Function Attrs: mustprogress nounwind uwtable
define linkonce_odr hidden void @_ZN11OopMapValue9set_valueEt(ptr noundef nonnull align 2 dereferenceable(4) %0, i16 noundef zeroext %1) #1 comdat align 2 {
  %3 = alloca ptr, align 8
  %4 = alloca i16, align 2
  store ptr %0, ptr %3, align 8
  store i16 %1, ptr %4, align 2
  %5 = load ptr, ptr %3, align 8
  %6 = load i16, ptr %4, align 2
  %7 = getelementptr inbounds %class.OopMapValue, ptr %5, i32 0, i32 0
  store i16 %6, ptr %7, align 2
  ret void
}

; Function Attrs: mustprogress nounwind uwtable
define linkonce_odr hidden void @_ZN16CompressedStreamC2EPhi(ptr noundef nonnull align 8 dereferenceable(12) %0, ptr noundef %1, i32 noundef %2) unnamed_addr #1 comdat align 2 {
  %4 = alloca ptr, align 8
  %5 = alloca ptr, align 8
  %6 = alloca i32, align 4
  store ptr %0, ptr %4, align 8
  store ptr %1, ptr %5, align 8
  store i32 %2, ptr %6, align 4
  %7 = load ptr, ptr %4, align 8
  %8 = load ptr, ptr %5, align 8
  %9 = getelementptr inbounds %class.CompressedStream, ptr %7, i32 0, i32 0
  store ptr %8, ptr %9, align 8
  %10 = load i32, ptr %6, align 4
  %11 = getelementptr inbounds %class.CompressedStream, ptr %7, i32 0, i32 1
  store i32 %10, ptr %11, align 8
  ret void
}

; Function Attrs: mustprogress nounwind uwtable
define linkonce_odr hidden noundef i32 @_ZNK15ImmutableOopMap5countEv(ptr noundef nonnull align 4 dereferenceable(9) %0) #1 comdat align 2 {
  %2 = alloca ptr, align 8
  store ptr %0, ptr %2, align 8
  %3 = load ptr, ptr %2, align 8
  %4 = getelementptr inbounds %class.ImmutableOopMap, ptr %3, i32 0, i32 0
  %5 = load i32, ptr %4, align 4
  ret i32 %5
}

; Function Attrs: mustprogress nounwind uwtable
define linkonce_odr hidden void @_ZN11OopMapValueC2Ev(ptr noundef nonnull align 2 dereferenceable(4) %0) unnamed_addr #1 comdat align 2 {
  %2 = alloca ptr, align 8
  store ptr %0, ptr %2, align 8
  %3 = load ptr, ptr %2, align 8
  call void @_ZN11OopMapValue9set_valueEt(ptr noundef nonnull align 2 dereferenceable(4) %3, i16 noundef zeroext 0)
  %4 = call noundef ptr @_ZN9VMRegImpl3BadEv()
  call void @_ZN11OopMapValue15set_content_regEP9VMRegImpl(ptr noundef nonnull align 2 dereferenceable(4) %3, ptr noundef %4)
  ret void
}

; Function Attrs: mustprogress nounwind uwtable
define linkonce_odr hidden void @_ZN20CompressedReadStreamC2EPhi(ptr noundef nonnull align 8 dereferenceable(12) %0, ptr noundef %1, i32 noundef %2) unnamed_addr #1 comdat align 2 {
  %4 = alloca ptr, align 8
  %5 = alloca ptr, align 8
  %6 = alloca i32, align 4
  store ptr %0, ptr %4, align 8
  store ptr %1, ptr %5, align 8
  store i32 %2, ptr %6, align 4
  %7 = load ptr, ptr %4, align 8
  %8 = load ptr, ptr %5, align 8
  %9 = load i32, ptr %6, align 4
  call void @_ZN16CompressedStreamC2EPhi(ptr noundef nonnull align 8 dereferenceable(12) %7, ptr noundef %8, i32 noundef %9)
  ret void
}

; Function Attrs: mustprogress nounwind uwtable
define linkonce_odr hidden noundef ptr @_ZNK15ImmutableOopMap9data_addrEv(ptr noundef nonnull align 4 dereferenceable(9) %0) #1 comdat align 2 {
  %2 = alloca ptr, align 8
  store ptr %0, ptr %2, align 8
  %3 = load ptr, ptr %2, align 8
  %4 = getelementptr inbounds i8, ptr %3, i64 12
  ret ptr %4
}

; Function Attrs: mustprogress nounwind uwtable
define hidden void @_ZN12OopMapStreamC2EPK15ImmutableOopMap(ptr noundef nonnull align 8 dereferenceable(30) %0, ptr noundef %1) unnamed_addr #1 align 2 {
  %3 = alloca ptr, align 8
  %4 = alloca ptr, align 8
  store ptr %0, ptr %3, align 8
  store ptr %1, ptr %4, align 8
  %5 = load ptr, ptr %3, align 8
  %6 = getelementptr inbounds %class.OopMapStream, ptr %5, i32 0, i32 0
  %7 = load ptr, ptr %4, align 8
  %8 = call noundef ptr @_ZNK15ImmutableOopMap9data_addrEv(ptr noundef nonnull align 4 dereferenceable(9) %7)
  call void @_ZN20CompressedReadStreamC2EPhi(ptr noundef nonnull align 8 dereferenceable(12) %6, ptr noundef %8, i32 noundef 0)
  %9 = getelementptr inbounds %class.OopMapStream, ptr %5, i32 0, i32 5
  call void @_ZN11OopMapValueC2Ev(ptr noundef nonnull align 2 dereferenceable(4) %9)
  %10 = load ptr, ptr %4, align 8
  %11 = call noundef i32 @_ZNK15ImmutableOopMap5countEv(ptr noundef nonnull align 4 dereferenceable(9) %10)
  %12 = getelementptr inbounds %class.OopMapStream, ptr %5, i32 0, i32 1
  store i32 %11, ptr %12, align 8
  %13 = getelementptr inbounds %class.OopMapStream, ptr %5, i32 0, i32 2
  store i32 0, ptr %13, align 4
  %14 = getelementptr inbounds %class.OopMapStream, ptr %5, i32 0, i32 3
  store i8 0, ptr %14, align 8
  ret void
}