; Function Attrs: mustprogress nofree norecurse nosync nounwind willreturn memory(argmem: readwrite) uwtable
define hidden void @_ZN12OopMapStreamC2EPK15ImmutableOopMap(ptr nocapture noundef nonnull writeonly align 8 dereferenceable(30) %0, ptr noundef %1) unnamed_addr #1 align 2 {
  %3 = getelementptr inbounds i8, ptr %1, i64 12
  store ptr %3, ptr %0, align 8
  %4 = getelementptr inbounds i8, ptr %0, i64 8
  store i32 0, ptr %4, align 8
  %5 = getelementptr inbounds i8, ptr %0, i64 26
  store i16 0, ptr %5, align 2
  %6 = getelementptr inbounds i8, ptr %0, i64 28
  store i16 -1, ptr %6, align 4
  %7 = load i32, ptr %1, align 4
  %8 = getelementptr inbounds i8, ptr %0, i64 16
  store i32 %7, ptr %8, align 8
  %9 = getelementptr inbounds i8, ptr %0, i64 20
  store i32 0, ptr %9, align 4
  %10 = getelementptr inbounds i8, ptr %0, i64 24
  store i8 0, ptr %10, align 8
  ret void
}